; ModuleID = '46/2788.c'
source_filename = "46/2788.c"
target datalayout = "e-m:e-p270:32:32-p271:32:32-p272:64:64-i64:64-f80:128-n8:16:32:64-S128"
target triple = "x86_64-pc-linux-gnu"

@.str = private unnamed_addr constant [4 x i8] c"%d\0A\00", align 1
@.str.1 = private unnamed_addr constant [6 x i8] c"%d %d\00", align 1
@.str.2 = private unnamed_addr constant [3 x i8] c"%d\00", align 1

; Function Attrs: noinline nounwind uwtable
define dso_local void @Matrix([100 x i32]* %0, i32 %1, i32 %2, i32 %3, i32 %4) #0 {
  %6 = alloca [100 x i32]*, align 8
  %7 = alloca i32, align 4
  %8 = alloca i32, align 4
  %9 = alloca i32, align 4
  %10 = alloca i32, align 4
  %11 = alloca i32, align 4
  %12 = alloca i32, align 4
  store [100 x i32]* %0, [100 x i32]** %6, align 8
  store i32 %1, i32* %7, align 4
  store i32 %2, i32* %8, align 4
  store i32 %3, i32* %9, align 4
  store i32 %4, i32* %10, align 4
  %13 = load i32, i32* %8, align 4
  store i32 %13, i32* %11, align 4
  br label %14

14:                                               ; preds = %28, %5
  %15 = load i32, i32* %11, align 4
  %16 = load i32, i32* %10, align 4
  %17 = icmp sle i32 %15, %16
  br i1 %17, label %18, label %31

18:                                               ; preds = %14
  %19 = load [100 x i32]*, [100 x i32]** %6, align 8
  %20 = load i32, i32* %7, align 4
  %21 = sext i32 %20 to i64
  %22 = getelementptr inbounds [100 x i32], [100 x i32]* %19, i64 %21
  %23 = load i32, i32* %11, align 4
  %24 = sext i32 %23 to i64
  %25 = getelementptr inbounds [100 x i32], [100 x i32]* %22, i64 0, i64 %24
  %26 = load i32, i32* %25, align 4
  %27 = call i32 (i8*, ...) @printf(i8* getelementptr inbounds ([4 x i8], [4 x i8]* @.str, i64 0, i64 0), i32 %26)
  br label %28

28:                                               ; preds = %18
  %29 = load i32, i32* %11, align 4
  %30 = add nsw i32 %29, 1
  store i32 %30, i32* %11, align 4
  br label %14

31:                                               ; preds = %14
  %32 = load i32, i32* %7, align 4
  %33 = add nsw i32 %32, 1
  store i32 %33, i32* %11, align 4
  br label %34

34:                                               ; preds = %48, %31
  %35 = load i32, i32* %11, align 4
  %36 = load i32, i32* %9, align 4
  %37 = icmp sle i32 %35, %36
  br i1 %37, label %38, label %51

38:                                               ; preds = %34
  %39 = load [100 x i32]*, [100 x i32]** %6, align 8
  %40 = load i32, i32* %11, align 4
  %41 = sext i32 %40 to i64
  %42 = getelementptr inbounds [100 x i32], [100 x i32]* %39, i64 %41
  %43 = load i32, i32* %10, align 4
  %44 = sext i32 %43 to i64
  %45 = getelementptr inbounds [100 x i32], [100 x i32]* %42, i64 0, i64 %44
  %46 = load i32, i32* %45, align 4
  %47 = call i32 (i8*, ...) @printf(i8* getelementptr inbounds ([4 x i8], [4 x i8]* @.str, i64 0, i64 0), i32 %46)
  br label %48

48:                                               ; preds = %38
  %49 = load i32, i32* %11, align 4
  %50 = add nsw i32 %49, 1
  store i32 %50, i32* %11, align 4
  br label %34

51:                                               ; preds = %34
  %52 = load i32, i32* %9, align 4
  %53 = load i32, i32* %7, align 4
  %54 = icmp sgt i32 %52, %53
  br i1 %54, label %55, label %76

55:                                               ; preds = %51
  %56 = load i32, i32* %10, align 4
  %57 = sub nsw i32 %56, 1
  store i32 %57, i32* %11, align 4
  br label %58

58:                                               ; preds = %72, %55
  %59 = load i32, i32* %11, align 4
  %60 = load i32, i32* %8, align 4
  %61 = icmp sge i32 %59, %60
  br i1 %61, label %62, label %75

62:                                               ; preds = %58
  %63 = load [100 x i32]*, [100 x i32]** %6, align 8
  %64 = load i32, i32* %9, align 4
  %65 = sext i32 %64 to i64
  %66 = getelementptr inbounds [100 x i32], [100 x i32]* %63, i64 %65
  %67 = load i32, i32* %11, align 4
  %68 = sext i32 %67 to i64
  %69 = getelementptr inbounds [100 x i32], [100 x i32]* %66, i64 0, i64 %68
  %70 = load i32, i32* %69, align 4
  %71 = call i32 (i8*, ...) @printf(i8* getelementptr inbounds ([4 x i8], [4 x i8]* @.str, i64 0, i64 0), i32 %70)
  br label %72

72:                                               ; preds = %62
  %73 = load i32, i32* %11, align 4
  %74 = add nsw i32 %73, -1
  store i32 %74, i32* %11, align 4
  br label %58

75:                                               ; preds = %58
  br label %76

76:                                               ; preds = %75, %51
  %77 = load i32, i32* %10, align 4
  %78 = load i32, i32* %8, align 4
  %79 = icmp sgt i32 %77, %78
  br i1 %79, label %80, label %102

80:                                               ; preds = %76
  %81 = load i32, i32* %9, align 4
  %82 = sub nsw i32 %81, 1
  store i32 %82, i32* %11, align 4
  br label %83

83:                                               ; preds = %98, %80
  %84 = load i32, i32* %11, align 4
  %85 = load i32, i32* %7, align 4
  %86 = add nsw i32 %85, 1
  %87 = icmp sge i32 %84, %86
  br i1 %87, label %88, label %101

88:                                               ; preds = %83
  %89 = load [100 x i32]*, [100 x i32]** %6, align 8
  %90 = load i32, i32* %11, align 4
  %91 = sext i32 %90 to i64
  %92 = getelementptr inbounds [100 x i32], [100 x i32]* %89, i64 %91
  %93 = load i32, i32* %8, align 4
  %94 = sext i32 %93 to i64
  %95 = getelementptr inbounds [100 x i32], [100 x i32]* %92, i64 0, i64 %94
  %96 = load i32, i32* %95, align 4
  %97 = call i32 (i8*, ...) @printf(i8* getelementptr inbounds ([4 x i8], [4 x i8]* @.str, i64 0, i64 0), i32 %96)
  br label %98

98:                                               ; preds = %88
  %99 = load i32, i32* %11, align 4
  %100 = add nsw i32 %99, -1
  store i32 %100, i32* %11, align 4
  br label %83

101:                                              ; preds = %83
  br label %102

102:                                              ; preds = %101, %76
  %103 = load i32, i32* %9, align 4
  %104 = load i32, i32* %7, align 4
  %105 = sub nsw i32 %103, %104
  %106 = icmp sge i32 %105, 2
  br i1 %106, label %107, label %122

107:                                              ; preds = %102
  %108 = load i32, i32* %10, align 4
  %109 = load i32, i32* %8, align 4
  %110 = sub nsw i32 %108, %109
  %111 = icmp sge i32 %110, 2
  br i1 %111, label %112, label %122

112:                                              ; preds = %107
  %113 = load [100 x i32]*, [100 x i32]** %6, align 8
  %114 = load i32, i32* %7, align 4
  %115 = add nsw i32 %114, 1
  %116 = load i32, i32* %8, align 4
  %117 = add nsw i32 %116, 1
  %118 = load i32, i32* %9, align 4
  %119 = sub nsw i32 %118, 1
  %120 = load i32, i32* %10, align 4
  %121 = sub nsw i32 %120, 1
  call void @Matrix([100 x i32]* %113, i32 %115, i32 %117, i32 %119, i32 %121)
  br label %122

122:                                              ; preds = %112, %107, %102
  ret void
}

declare dso_local i32 @printf(i8*, ...) #1

; Function Attrs: noinline nounwind uwtable
define dso_local i32 @main() #0 {
  %1 = alloca i32, align 4
  %2 = alloca [100 x [100 x i32]], align 16
  %3 = alloca i32, align 4
  %4 = alloca i32, align 4
  %5 = alloca i32, align 4
  %6 = alloca i32, align 4
  store i32 0, i32* %1, align 4
  %7 = call i32 (i8*, ...) @__isoc99_scanf(i8* getelementptr inbounds ([6 x i8], [6 x i8]* @.str.1, i64 0, i64 0), i32* %5, i32* %6)
  store i32 0, i32* %3, align 4
  br label %8

8:                                                ; preds = %29, %0
  %9 = load i32, i32* %3, align 4
  %10 = load i32, i32* %5, align 4
  %11 = icmp slt i32 %9, %10
  br i1 %11, label %12, label %32

12:                                               ; preds = %8
  store i32 0, i32* %4, align 4
  br label %13

13:                                               ; preds = %25, %12
  %14 = load i32, i32* %4, align 4
  %15 = load i32, i32* %6, align 4
  %16 = icmp slt i32 %14, %15
  br i1 %16, label %17, label %28

17:                                               ; preds = %13
  %18 = load i32, i32* %3, align 4
  %19 = sext i32 %18 to i64
  %20 = getelementptr inbounds [100 x [100 x i32]], [100 x [100 x i32]]* %2, i64 0, i64 %19
  %21 = load i32, i32* %4, align 4
  %22 = sext i32 %21 to i64
  %23 = getelementptr inbounds [100 x i32], [100 x i32]* %20, i64 0, i64 %22
  %24 = call i32 (i8*, ...) @__isoc99_scanf(i8* getelementptr inbounds ([3 x i8], [3 x i8]* @.str.2, i64 0, i64 0), i32* %23)
  br label %25

25:                                               ; preds = %17
  %26 = load i32, i32* %4, align 4
  %27 = add nsw i32 %26, 1
  store i32 %27, i32* %4, align 4
  br label %13

28:                                               ; preds = %13
  br label %29

29:                                               ; preds = %28
  %30 = load i32, i32* %3, align 4
  %31 = add nsw i32 %30, 1
  store i32 %31, i32* %3, align 4
  br label %8

32:                                               ; preds = %8
  %33 = getelementptr inbounds [100 x [100 x i32]], [100 x [100 x i32]]* %2, i64 0, i64 0
  %34 = load i32, i32* %5, align 4
  %35 = sub nsw i32 %34, 1
  %36 = load i32, i32* %6, align 4
  %37 = sub nsw i32 %36, 1
  call void @Matrix([100 x i32]* %33, i32 0, i32 0, i32 %35, i32 %37)
  %38 = load i32, i32* %1, align 4
  ret i32 %38
}

declare dso_local i32 @__isoc99_scanf(i8*, ...) #1


!llvm.module.flags = !{!0}
!llvm.ident = !{!1}

!0 = !{i32 1, !"wchar_size", i32 4}
!1 = !{!"clang version 10.0.0-4ubuntu1 "}
